; Function Attrs: mustprogress uwtable
define noundef zeroext i1 @_ZN11OpenImageIO6v3_1_012ImageBufAlgo3cutERNS0_8ImageBufERKS2_NS0_3ROIEi(ptr noundef nonnull align 8 dereferenceable(16) %0, ptr noundef nonnull align 8 dereferenceable(16) %1, ptr noundef readonly byval(%"struct.OpenImageIO::v3_1_0::ROI") align 8 captures(none) %2, i32 noundef %3) local_unnamed_addr #5 {
  %5 = alloca %"struct.OpenImageIO::v3_1_0::ROI", align 4
  %6 = tail call noundef zeroext i1 @_ZN11OpenImageIO6v3_1_012ImageBufAlgo4cropERNS0_8ImageBufERKS2_NS0_3ROIEi(ptr noundef nonnull align 8 dereferenceable(16) %0, ptr noundef nonnull align 8 dereferenceable(16) %1, ptr noundef nonnull byval(%"struct.OpenImageIO::v3_1_0::ROI") align 8 %2, i32 noundef %3)
  br i1 %6, label %7, label %13

7:                                                ; preds = %4
  %8 = tail call noundef nonnull align 8 dereferenceable(160) ptr @_ZN11OpenImageIO6v3_1_08ImageBuf7specmodEv(ptr noundef nonnull align 8 dereferenceable(16) %0)
  store i32 0, ptr %8, align 8, !tbaa !140
  %9 = tail call noundef nonnull align 8 dereferenceable(160) ptr @_ZN11OpenImageIO6v3_1_08ImageBuf7specmodEv(ptr noundef nonnull align 8 dereferenceable(16) %0)
  %10 = getelementptr inbounds nuw i8, ptr %9, i64 4
  store i32 0, ptr %10, align 4, !tbaa !141
  %11 = tail call noundef nonnull align 8 dereferenceable(160) ptr @_ZN11OpenImageIO6v3_1_08ImageBuf7specmodEv(ptr noundef nonnull align 8 dereferenceable(16) %0)
  %12 = getelementptr inbounds nuw i8, ptr %11, i64 8
  store i32 0, ptr %12, align 8, !tbaa !142
  call void @llvm.lifetime.start.p0(i64 32, ptr nonnull %5) #27
  call void @_ZNK11OpenImageIO6v3_1_08ImageBuf3roiEv(ptr dead_on_unwind nonnull writable sret(%"struct.OpenImageIO::v3_1_0::ROI") align 4 %5, ptr noundef nonnull align 8 dereferenceable(16) %0)
  call void @_ZN11OpenImageIO6v3_1_08ImageBuf12set_roi_fullERKNS0_3ROIE(ptr noundef nonnull align 8 dereferenceable(16) %0, ptr noundef nonnull align 4 dereferenceable(32) %5)
  call void @llvm.lifetime.end.p0(i64 32, ptr nonnull %5) #27
  br label %13

13:                                               ; preds = %4, %7
  ret i1 %6
}